target datalayout = "e-m:e-p270:32:32-p271:32:32-p272:64:64-i64:64-i128:128-f80:128-n8:16:32:64-S128"
target triple = "x86_64-pc-linux-gnu"

%"class.std::__cxx11::basic_string" = type { %"struct.std::__cxx11::basic_string<char>::_Alloc_hider", i64, %union.anon }
%"struct.std::__cxx11::basic_string<char>::_Alloc_hider" = type { ptr }
%union.anon = type { i64, [8 x i8] }
%"class.std::allocator.0" = type { i8 }
%"class.absl::debian2::Span.5" = type { ptr, i64 }
%"class.open_spiel::SamplerFromRng" = type { %"class.std::function" }
%"class.std::function" = type { %"class.std::_Function_base", ptr }
%"class.std::_Function_base" = type { %"union.std::_Any_data", ptr }
%"union.std::_Any_data" = type { %"union.std::_Nocopy_types" }
%"union.std::_Nocopy_types" = type { { i64, i64 } }
%class.anon.7 = type { i8 }

@.str.33 = private unnamed_addr constant [48 x i8] c"SamplerFromRng: not a probability distribution.\00", align 1

; Function Attrs: noreturn nounwind uwtable
define linkonce_odr hidden void @__clang_call_terminate(ptr noundef %0) #12 comdat {
  %2 = call ptr @__cxa_begin_catch(ptr %0) #3
  call void @_ZSt9terminatev() #18
  unreachable
}

; Function Attrs: mustprogress nounwind uwtable
define linkonce_odr noundef ptr @_ZNK4absl7debian24SpanIKdE4dataEv(ptr noundef nonnull align 8 dereferenceable(16) %0) #4 comdat align 2 {
  %2 = alloca ptr, align 8
  store ptr %0, ptr %2, align 8
  %3 = load ptr, ptr %2, align 8
  %4 = getelementptr inbounds nuw %"class.absl::debian2::Span.5", ptr %3, i32 0, i32 0
  %5 = load ptr, ptr %4, align 8
  ret ptr %5
}

; Function Attrs: mustprogress nounwind uwtable
define linkonce_odr void @_ZZNK4absl7debian24SpanIKdEixEmENKUlvE_clEv(ptr noundef nonnull align 1 dereferenceable(1) %0) #4 comdat align 2 {
  %2 = alloca ptr, align 8
  store ptr %0, ptr %2, align 8
  br label %3

3:                                                ; preds = %1
  call void @llvm.trap()
  unreachable

4:                                                ; No predecessors!
  ret void
}

; Function Attrs: mustprogress nounwind uwtable
define linkonce_odr noundef zeroext i1 @_ZNKSt14_Function_base8_M_emptyEv(ptr noundef nonnull align 8 dereferenceable(24) %0) #4 comdat align 2 {
  %2 = alloca ptr, align 8
  store ptr %0, ptr %2, align 8
  %3 = load ptr, ptr %2, align 8
  %4 = getelementptr inbounds nuw %"class.std::_Function_base", ptr %3, i32 0, i32 1
  %5 = load ptr, ptr %4, align 8
  %6 = icmp ne ptr %5, null
  %7 = xor i1 %6, true
  ret i1 %7
}

; Function Attrs: mustprogress nounwind uwtable
define linkonce_odr noundef nonnull align 8 dereferenceable(8) ptr @_ZNK4absl7debian24SpanIKdEixEm(ptr noundef nonnull align 8 dereferenceable(16) %0, i64 noundef %1) #4 comdat align 2 personality ptr @__gxx_personality_v0 {
  %3 = alloca ptr, align 8
  %4 = alloca i64, align 8
  %5 = alloca %class.anon.7, align 1
  store ptr %0, ptr %3, align 8
  store i64 %1, ptr %4, align 8
  %6 = load ptr, ptr %3, align 8
  %7 = load i64, ptr %4, align 8
  %8 = call noundef i64 @_ZNK4absl7debian24SpanIKdE4sizeEv(ptr noundef nonnull align 8 dereferenceable(16) %6) #3
  %9 = icmp ult i64 %7, %8
  br i1 %9, label %10, label %11

10:                                               ; preds = %2
  br label %13

11:                                               ; preds = %2
  invoke void @_ZZNK4absl7debian24SpanIKdEixEmENKUlvE_clEv(ptr noundef nonnull align 1 dereferenceable(1) %5)
          to label %12 unwind label %17

12:                                               ; preds = %11
  br label %13

13:                                               ; preds = %12, %10
  %14 = call noundef ptr @_ZNK4absl7debian24SpanIKdE4dataEv(ptr noundef nonnull align 8 dereferenceable(16) %6) #3
  %15 = load i64, ptr %4, align 8
  %16 = getelementptr inbounds double, ptr %14, i64 %15
  ret ptr %16

17:                                               ; preds = %11
  %18 = landingpad { ptr, i32 }
          catch ptr null
  %19 = extractvalue { ptr, i32 } %18, 0
  call void @__clang_call_terminate(ptr %19) #18
  unreachable
}

; Function Attrs: mustprogress nounwind uwtable
define linkonce_odr noundef i64 @_ZNK4absl7debian24SpanIKdE4sizeEv(ptr noundef nonnull align 8 dereferenceable(16) %0) #4 comdat align 2 {
  %2 = alloca ptr, align 8
  store ptr %0, ptr %2, align 8
  %3 = load ptr, ptr %2, align 8
  %4 = getelementptr inbounds nuw %"class.absl::debian2::Span.5", ptr %3, i32 0, i32 1
  %5 = load i64, ptr %4, align 8
  ret i64 %5
}

; Function Attrs: mustprogress uwtable
define linkonce_odr noundef double @_ZNKSt8functionIFdvEEclEv(ptr noundef nonnull align 8 dereferenceable(32) %0) #5 comdat align 2 {
  %2 = alloca ptr, align 8
  store ptr %0, ptr %2, align 8
  %3 = load ptr, ptr %2, align 8
  %4 = call noundef zeroext i1 @_ZNKSt14_Function_base8_M_emptyEv(ptr noundef nonnull align 8 dereferenceable(24) %3)
  br i1 %4, label %5, label %6

5:                                                ; preds = %1
  call void @_ZSt25__throw_bad_function_callv() #17
  unreachable

6:                                                ; preds = %1
  %7 = getelementptr inbounds nuw %"class.std::function", ptr %3, i32 0, i32 1
  %8 = load ptr, ptr %7, align 8
  %9 = getelementptr inbounds nuw %"class.std::_Function_base", ptr %3, i32 0, i32 0
  %10 = call noundef double %8(ptr noundef nonnull align 8 dereferenceable(16) %9)
  ret double %10
}

; Function Attrs: mustprogress uwtable
define noundef i32 @_ZN10open_spiel14SamplerFromRngclEN4absl7debian24SpanIKdEE(ptr noundef nonnull align 8 dereferenceable(32) %0, ptr %1, i64 %2) #5 align 2 personality ptr @__gxx_personality_v0 {
  %4 = alloca i32, align 4
  %5 = alloca %"class.absl::debian2::Span.5", align 8
  %6 = alloca ptr, align 8
  %7 = alloca float, align 4
  %8 = alloca float, align 4
  %9 = alloca i32, align 4
  %10 = alloca i32, align 4
  %11 = alloca %"class.std::__cxx11::basic_string", align 8
  %12 = alloca %"class.std::allocator.0", align 1
  %13 = alloca ptr, align 8
  %14 = alloca i32, align 4
  %15 = getelementptr inbounds nuw { ptr, i64 }, ptr %5, i32 0, i32 0
  store ptr %1, ptr %15, align 8
  %16 = getelementptr inbounds nuw { ptr, i64 }, ptr %5, i32 0, i32 1
  store i64 %2, ptr %16, align 8
  store ptr %0, ptr %6, align 8
  %17 = load ptr, ptr %6, align 8
  %18 = getelementptr inbounds nuw %"class.open_spiel::SamplerFromRng", ptr %17, i32 0, i32 0
  %19 = call noundef double @_ZNKSt8functionIFdvEEclEv(ptr noundef nonnull align 8 dereferenceable(32) %18)
  %20 = fptrunc double %19 to float
  store float %20, ptr %7, align 4
  store float 0.000000e+00, ptr %8, align 4
  store i32 0, ptr %9, align 4
  br label %21

21:                                               ; preds = %41, %3
  %22 = load i32, ptr %9, align 4
  %23 = sext i32 %22 to i64
  %24 = call noundef i64 @_ZNK4absl7debian24SpanIKdE4sizeEv(ptr noundef nonnull align 8 dereferenceable(16) %5) #3
  %25 = icmp ult i64 %23, %24
  br i1 %25, label %26, label %44

26:                                               ; preds = %21
  %27 = load i32, ptr %9, align 4
  %28 = sext i32 %27 to i64
  %29 = call noundef nonnull align 8 dereferenceable(8) ptr @_ZNK4absl7debian24SpanIKdEixEm(ptr noundef nonnull align 8 dereferenceable(16) %5, i64 noundef %28) #3
  %30 = load double, ptr %29, align 8
  %31 = load float, ptr %8, align 4
  %32 = fpext float %31 to double
  %33 = fadd double %32, %30
  %34 = fptrunc double %33 to float
  store float %34, ptr %8, align 4
  %35 = load float, ptr %7, align 4
  %36 = load float, ptr %8, align 4
  %37 = fcmp olt float %35, %36
  br i1 %37, label %38, label %40

38:                                               ; preds = %26
  %39 = load i32, ptr %9, align 4
  store i32 %39, ptr %4, align 4
  br label %75

40:                                               ; preds = %26
  br label %41

41:                                               ; preds = %40
  %42 = load i32, ptr %9, align 4
  %43 = add nsw i32 %42, 1
  store i32 %43, ptr %9, align 4
  br label %21, !llvm.loop !11

44:                                               ; preds = %21
  %45 = call noundef i64 @_ZNK4absl7debian24SpanIKdE4sizeEv(ptr noundef nonnull align 8 dereferenceable(16) %5) #3
  %46 = sub i64 %45, 1
  %47 = trunc i64 %46 to i32
  store i32 %47, ptr %10, align 4
  br label %48

48:                                               ; preds = %60, %44
  %49 = load i32, ptr %10, align 4
  %50 = icmp sge i32 %49, 0
  br i1 %50, label %51, label %63

51:                                               ; preds = %48
  %52 = load i32, ptr %10, align 4
  %53 = sext i32 %52 to i64
  %54 = call noundef nonnull align 8 dereferenceable(8) ptr @_ZNK4absl7debian24SpanIKdEixEm(ptr noundef nonnull align 8 dereferenceable(16) %5, i64 noundef %53) #3
  %55 = load double, ptr %54, align 8
  %56 = fcmp ogt double %55, 0.000000e+00
  br i1 %56, label %57, label %59

57:                                               ; preds = %51
  %58 = load i32, ptr %10, align 4
  store i32 %58, ptr %4, align 4
  br label %75

59:                                               ; preds = %51
  br label %60

60:                                               ; preds = %59
  %61 = load i32, ptr %10, align 4
  %62 = add nsw i32 %61, -1
  store i32 %62, ptr %10, align 4
  br label %48, !llvm.loop !12

63:                                               ; preds = %48
  call void @_ZNSaIcEC1Ev(ptr noundef nonnull align 1 dereferenceable(1) %12) #3
  invoke void @_ZNSt7__cxx1112basic_stringIcSt11char_traitsIcESaIcEEC2IS3_EEPKcRKS3_(ptr noundef nonnull align 8 dereferenceable(32) %11, ptr noundef @.str.33, ptr noundef nonnull align 1 dereferenceable(1) %12)
          to label %64 unwind label %66

64:                                               ; preds = %63
  invoke void @_ZN10open_spiel15SpielFatalErrorERKNSt7__cxx1112basic_stringIcSt11char_traitsIcESaIcEEE(ptr noundef nonnull align 8 dereferenceable(32) %11) #17
          to label %65 unwind label %70

65:                                               ; preds = %64
  unreachable

66:                                               ; preds = %63
  %67 = landingpad { ptr, i32 }
          cleanup
  %68 = extractvalue { ptr, i32 } %67, 0
  store ptr %68, ptr %13, align 8
  %69 = extractvalue { ptr, i32 } %67, 1
  store i32 %69, ptr %14, align 4
  br label %74

70:                                               ; preds = %64
  %71 = landingpad { ptr, i32 }
          cleanup
  %72 = extractvalue { ptr, i32 } %71, 0
  store ptr %72, ptr %13, align 8
  %73 = extractvalue { ptr, i32 } %71, 1
  store i32 %73, ptr %14, align 4
  call void @_ZNSt7__cxx1112basic_stringIcSt11char_traitsIcESaIcEED1Ev(ptr noundef nonnull align 8 dereferenceable(32) %11) #3
  br label %74

74:                                               ; preds = %70, %66
  call void @_ZNSaIcED1Ev(ptr noundef nonnull align 1 dereferenceable(1) %12) #3
  br label %77

75:                                               ; preds = %57, %38
  %76 = load i32, ptr %4, align 4
  ret i32 %76

77:                                               ; preds = %74
  %78 = load ptr, ptr %13, align 8
  %79 = load i32, ptr %14, align 4
  %80 = insertvalue { ptr, i32 } poison, ptr %78, 0
  %81 = insertvalue { ptr, i32 } %80, i32 %79, 1
  resume { ptr, i32 } %81
}