; Function Attrs: mustprogress uwtable
define noundef i32 @_ZN10open_spiel14SamplerFromRngclEN4absl7debian24SpanIKdEE(ptr noundef nonnull align 8 dereferenceable(32) %0, ptr nocapture readonly %1, i64 %2) local_unnamed_addr #4 align 2 personality ptr @__gxx_personality_v0 {
  %4 = alloca %"class.std::__cxx11::basic_string", align 8
  %5 = alloca %"class.std::allocator.0", align 1
  %6 = getelementptr inbounds nuw i8, ptr %0, i64 16
  %7 = load ptr, ptr %6, align 8
  %.not.i.i = icmp eq ptr %7, null
  br i1 %.not.i.i, label %8, label %_ZNKSt8functionIFdvEEclEv.exit

8:                                                ; preds = %3
  tail call void @_ZSt25__throw_bad_function_callv() #20
  unreachable

_ZNKSt8functionIFdvEEclEv.exit:                   ; preds = %3
  %9 = getelementptr inbounds nuw i8, ptr %0, i64 24
  %10 = load ptr, ptr %9, align 8
  %11 = tail call noundef double %10(ptr noundef nonnull align 8 dereferenceable(16) %0)
  %12 = fptrunc double %11 to float
  %.not = icmp eq i64 %2, 0
  br i1 %.not, label %._crit_edge, label %_ZNK4absl7debian24SpanIKdEixEm.exit

_ZNK4absl7debian24SpanIKdEixEm.exit:              ; preds = %_ZNKSt8functionIFdvEEclEv.exit, %19
  %indvars.iv = phi i64 [ %indvars.iv.next, %19 ], [ 0, %_ZNKSt8functionIFdvEEclEv.exit ]
  %.01731 = phi float [ %17, %19 ], [ 0.000000e+00, %_ZNKSt8functionIFdvEEclEv.exit ]
  %13 = getelementptr inbounds double, ptr %1, i64 %indvars.iv
  %14 = load double, ptr %13, align 8
  %15 = fpext float %.01731 to double
  %16 = fadd double %14, %15
  %17 = fptrunc double %16 to float
  %18 = fcmp olt float %12, %17
  br i1 %18, label %.loopexit.loopexit33, label %19

19:                                               ; preds = %_ZNK4absl7debian24SpanIKdEixEm.exit
  %indvars.iv.next = add nuw i64 %indvars.iv, 1
  %exitcond.not = icmp eq i64 %indvars.iv.next, %2
  br i1 %exitcond.not, label %._crit_edge, label %_ZNK4absl7debian24SpanIKdEixEm.exit, !llvm.loop !16

._crit_edge:                                      ; preds = %19, %_ZNKSt8functionIFdvEEclEv.exit
  %20 = and i64 %2, 4294967295
  br label %21

21:                                               ; preds = %_ZNK4absl7debian24SpanIKdEixEm.exit22, %._crit_edge
  %indvars.iv38 = phi i64 [ %indvars.iv.next39, %_ZNK4absl7debian24SpanIKdEixEm.exit22 ], [ %20, %._crit_edge ]
  %indvars.iv.next39 = add nsw i64 %indvars.iv38, -1
  %indvars = trunc i64 %indvars.iv.next39 to i32
  %22 = icmp sgt i32 %indvars, -1
  br i1 %22, label %23, label %30

23:                                               ; preds = %21
  %24 = and i64 %indvars.iv.next39, 2147483647
  %25 = icmp ugt i64 %2, %24
  br i1 %25, label %_ZNK4absl7debian24SpanIKdEixEm.exit22, label %26

26:                                               ; preds = %23
  tail call void @llvm.trap()
  unreachable

_ZNK4absl7debian24SpanIKdEixEm.exit22:            ; preds = %23
  %27 = getelementptr inbounds double, ptr %1, i64 %24
  %28 = load double, ptr %27, align 8
  %29 = fcmp ogt double %28, 0.000000e+00
  br i1 %29, label %.loopexit, label %21, !llvm.loop !17

30:                                               ; preds = %21
  call void @_ZNSaIcEC1Ev(ptr noundef nonnull align 1 dereferenceable(1) %5) #21
  invoke void @_ZNSt7__cxx1112basic_stringIcSt11char_traitsIcESaIcEEC2IS3_EEPKcRKS3_(ptr noundef nonnull align 8 dereferenceable(32) %4, ptr noundef nonnull @.str.33, ptr noundef nonnull align 1 dereferenceable(1) %5)
          to label %31 unwind label %33

31:                                               ; preds = %30
  invoke void @_ZN10open_spiel15SpielFatalErrorERKNSt7__cxx1112basic_stringIcSt11char_traitsIcESaIcEEE(ptr noundef nonnull align 8 dereferenceable(32) %4) #20
          to label %32 unwind label %35

32:                                               ; preds = %31
  unreachable

33:                                               ; preds = %30
  %34 = landingpad { ptr, i32 }
          cleanup
  br label %37

35:                                               ; preds = %31
  %36 = landingpad { ptr, i32 }
          cleanup
  call void @_ZNSt7__cxx1112basic_stringIcSt11char_traitsIcESaIcEED1Ev(ptr noundef nonnull align 8 dereferenceable(32) %4) #21
  br label %37

37:                                               ; preds = %35, %33
  %.pn = phi { ptr, i32 } [ %36, %35 ], [ %34, %33 ]
  call void @_ZNSaIcED1Ev(ptr noundef nonnull align 1 dereferenceable(1) %5) #21
  resume { ptr, i32 } %.pn

.loopexit.loopexit33:                             ; preds = %_ZNK4absl7debian24SpanIKdEixEm.exit
  %38 = trunc nuw nsw i64 %indvars.iv to i32
  br label %.loopexit

.loopexit:                                        ; preds = %_ZNK4absl7debian24SpanIKdEixEm.exit22, %.loopexit.loopexit33
  %.018 = phi i32 [ %38, %.loopexit.loopexit33 ], [ %indvars, %_ZNK4absl7debian24SpanIKdEixEm.exit22 ]
  ret i32 %.018
}